; Function Attrs: mustprogress uwtable
define hidden void @_ZN5osgeo4proj22CPLJSonStreamingWriter3AddEPKc(ptr noundef nonnull align 8 dereferenceable(153) %0, ptr noundef %1) local_unnamed_addr #0 align 2 personality ptr @__gxx_personality_v0 {
  %3 = alloca %"class.std::__cxx11::basic_string", align 8
  %4 = alloca %"class.std::__cxx11::basic_string", align 8
  %5 = alloca %"class.std::allocator", align 1
  tail call void @_ZN5osgeo4proj22CPLJSonStreamingWriter17EmitCommaIfNeededEv(ptr noundef nonnull align 8 dereferenceable(153) %0)
  call void @_ZNSaIcEC1Ev(ptr noundef nonnull align 1 dereferenceable(1) %5) #13
  invoke void @_ZNSt7__cxx1112basic_stringIcSt11char_traitsIcESaIcEEC1EPKcRKS3_(ptr noundef nonnull align 8 dereferenceable(32) %4, ptr noundef %1, ptr noundef nonnull align 1 dereferenceable(1) %5)
          to label %6 unwind label %16

6:                                                ; preds = %2
  invoke void @_ZN5osgeo4proj22CPLJSonStreamingWriter12FormatStringERKNSt7__cxx1112basic_stringIcSt11char_traitsIcESaIcEEE(ptr dead_on_unwind nonnull writable sret(%"class.std::__cxx11::basic_string") align 8 %3, ptr noundef nonnull align 8 dereferenceable(32) %4)
          to label %7 unwind label %18

7:                                                ; preds = %6
  %8 = getelementptr inbounds i8, ptr %0, i64 32
  %9 = load ptr, ptr %8, align 8
  %.not.i = icmp eq ptr %9, null
  br i1 %.not.i, label %14, label %10

10:                                               ; preds = %7
  %11 = call noundef ptr @_ZNKSt7__cxx1112basic_stringIcSt11char_traitsIcESaIcEE5c_strEv(ptr noundef nonnull align 8 dereferenceable(32) %3) #13
  %12 = getelementptr inbounds i8, ptr %0, i64 40
  %13 = load ptr, ptr %12, align 8
  invoke void %9(ptr noundef %11, ptr noundef %13)
          to label %_ZN5osgeo4proj22CPLJSonStreamingWriter5PrintERKNSt7__cxx1112basic_stringIcSt11char_traitsIcESaIcEEE.exit unwind label %20

14:                                               ; preds = %7
  %15 = invoke noundef nonnull align 8 dereferenceable(32) ptr @_ZNSt7__cxx1112basic_stringIcSt11char_traitsIcESaIcEEpLERKS4_(ptr noundef nonnull align 8 dereferenceable(32) %0, ptr noundef nonnull align 8 dereferenceable(32) %3)
          to label %_ZN5osgeo4proj22CPLJSonStreamingWriter5PrintERKNSt7__cxx1112basic_stringIcSt11char_traitsIcESaIcEEE.exit unwind label %20

_ZN5osgeo4proj22CPLJSonStreamingWriter5PrintERKNSt7__cxx1112basic_stringIcSt11char_traitsIcESaIcEEE.exit: ; preds = %10, %14
  call void @_ZNSt7__cxx1112basic_stringIcSt11char_traitsIcESaIcEED1Ev(ptr noundef nonnull align 8 dereferenceable(32) %3) #13
  call void @_ZNSt7__cxx1112basic_stringIcSt11char_traitsIcESaIcEED1Ev(ptr noundef nonnull align 8 dereferenceable(32) %4) #13
  call void @_ZNSaIcED1Ev(ptr noundef nonnull align 1 dereferenceable(1) %5) #13
  ret void

16:                                               ; preds = %2
  %17 = landingpad { ptr, i32 }
          cleanup
  br label %23

18:                                               ; preds = %6
  %19 = landingpad { ptr, i32 }
          cleanup
  br label %22

20:                                               ; preds = %14, %10
  %21 = landingpad { ptr, i32 }
          cleanup
  call void @_ZNSt7__cxx1112basic_stringIcSt11char_traitsIcESaIcEED1Ev(ptr noundef nonnull align 8 dereferenceable(32) %3) #13
  br label %22

22:                                               ; preds = %20, %18
  %.pn = phi { ptr, i32 } [ %21, %20 ], [ %19, %18 ]
  call void @_ZNSt7__cxx1112basic_stringIcSt11char_traitsIcESaIcEED1Ev(ptr noundef nonnull align 8 dereferenceable(32) %4) #13
  br label %23

23:                                               ; preds = %22, %16
  %.pn.pn = phi { ptr, i32 } [ %.pn, %22 ], [ %17, %16 ]
  call void @_ZNSaIcED1Ev(ptr noundef nonnull align 1 dereferenceable(1) %5) #13
  resume { ptr, i32 } %.pn.pn
}